; Function Attrs: nounwind uwtable
define internal void @SHA3_dealloc(ptr noundef %0) #0 {
  %2 = getelementptr i8, ptr %0, i64 8
  %.val = load ptr, ptr %2, align 8, !tbaa !22
  tail call void @PyObject_GC_UnTrack(ptr noundef %0) #4
  %3 = getelementptr inbounds nuw i8, ptr %0, i64 24
  %4 = load ptr, ptr %3, align 8, !tbaa !16
  %.not.i6 = icmp eq ptr %4, null
  br i1 %.not.i6, label %SHA3_clear.exit, label %5

5:                                                ; preds = %1
  tail call void @python_hashlib_Hacl_Hash_SHA3_free(ptr noundef nonnull %4) #4
  store ptr null, ptr %3, align 8, !tbaa !16
  br label %SHA3_clear.exit

SHA3_clear.exit:                                  ; preds = %1, %5
  %6 = getelementptr inbounds nuw i8, ptr %.val, i64 320
  %7 = load ptr, ptr %6, align 8, !tbaa !23
  tail call void %7(ptr noundef nonnull %0) #4
  %8 = load i32, ptr %.val, align 8, !tbaa !15
  %.not.i = icmp sgt i32 %8, -1
  br i1 %.not.i, label %9, label %Py_DECREF.exit

9:                                                ; preds = %SHA3_clear.exit
  %10 = add nsw i32 %8, -1
  store i32 %10, ptr %.val, align 8, !tbaa !15
  %11 = icmp eq i32 %10, 0
  br i1 %11, label %12, label %Py_DECREF.exit

12:                                               ; preds = %9
  tail call void @_Py_Dealloc(ptr noundef nonnull %.val) #4
  br label %Py_DECREF.exit

Py_DECREF.exit:                                   ; preds = %SHA3_clear.exit, %9, %12
  ret void
}